target datalayout = "e-m:e-p270:32:32-p271:32:32-p272:64:64-i64:64-i128:128-f80:128-n8:16:32:64-S128"
target triple = "x86_64-pc-linux-gnu"

%struct.QMetaObject = type { %"struct.QMetaObject::Data" }
%"struct.QMetaObject::Data" = type { %"struct.QMetaObject::SuperData", ptr, ptr, ptr, ptr, ptr, ptr }
%"struct.QMetaObject::SuperData" = type { ptr }
%class.QString = type { %struct.QArrayDataPointer }
%struct.QArrayDataPointer = type { ptr, ptr, i64 }
%"class.QMetaObject::Connection" = type { ptr }
%class.QWidget = type { %class.QObject, %class.QPaintDevice.base, ptr }
%class.QObject = type { ptr, %class.QScopedPointer }
%class.QScopedPointer = type { ptr }
%class.QPaintDevice.base = type <{ ptr, i16 }>
%class.QBasicAtomicInteger = type { %"struct.std::atomic" }
%"struct.std::atomic" = type { %"struct.std::__atomic_base" }
%"struct.std::__atomic_base" = type { i32 }
%class.ShowPacketBytesTextEdit = type <{ %class.QTextEdit, i8, i8, [6 x i8] }>
%class.QTextEdit = type { %class.QAbstractScrollArea }
%class.QAbstractScrollArea = type { %class.QFrame }
%class.QFrame = type { %class.QWidget }
%class.QTextCursor = type { %class.QSharedDataPointer }
%class.QSharedDataPointer = type { ptr }
%class.QEvent = type { ptr, i16, i8, i8, i8, i8, i16 }
%class.QInputEvent = type { %class.QEvent, ptr, i64, %class.QFlags.21, i32 }
%class.QFlags.21 = type { i32 }
%class.QFlags.36 = type { i32 }
%class.QContextMenuEvent = type <{ %class.QInputEvent, %class.QPoint, %class.QPoint, i8, [7 x i8] }>
%class.QPoint = type { i32, i32 }
%struct.QArrayData = type { %class.QBasicAtomicInteger, %class.QFlags.36, i64 }

@.str.65 = private unnamed_addr constant [14 x i8] c"Show Selected\00", align 1
@.str.66 = private unnamed_addr constant [13 x i8] c"2triggered()\00", align 1
@.str.67 = private unnamed_addr constant [16 x i8] c"1showSelected()\00", align 1
@.str.68 = private unnamed_addr constant [9 x i8] c"Show All\00", align 1
@.str.69 = private unnamed_addr constant [11 x i8] c"1showAll()\00", align 1
@_ZN23ShowPacketBytesTextEdit16staticMetaObjectE = external global %struct.QMetaObject, align 8

; Function Attrs: mustprogress nounwind null_pointer_is_valid sspstrong uwtable
define linkonce_odr noundef i32 @_ZNSt13__atomic_baseIiEmmEv(ptr noundef align 4 dereferenceable_or_null(4) %0) #7 comdat align 2 {
  %2 = alloca ptr, align 8
  %3 = alloca i32, align 4
  %4 = alloca i32, align 4
  store ptr %0, ptr %2, align 8
  %5 = load ptr, ptr %2, align 8
  %6 = getelementptr inbounds nuw %"struct.std::__atomic_base", ptr %5, i32 0, i32 0
  store i32 1, ptr %3, align 4
  %7 = load i32, ptr %3, align 4
  %8 = atomicrmw sub ptr %6, i32 %7 seq_cst, align 4
  %9 = sub i32 %8, %7
  store i32 %9, ptr %4, align 4
  %10 = load i32, ptr %4, align 4
  ret i32 %10
}

; Function Attrs: inlinehint mustprogress nounwind null_pointer_is_valid sspstrong uwtable
define linkonce_odr noundef zeroext i1 @_ZN10QAtomicOpsIiE5derefIiEEbRSt6atomicIT_E(ptr noundef align 4 dereferenceable(4) %0) #3 comdat align 2 {
  %2 = alloca ptr, align 8
  store ptr %0, ptr %2, align 8
  %3 = load ptr, ptr %2, align 8
  %4 = call noundef i32 @_ZNSt13__atomic_baseIiEmmEv(ptr noundef align 4 dereferenceable_or_null(4) %3) #13
  %5 = icmp ne i32 %4, 0
  ret i1 %5
}

; Function Attrs: mustprogress nounwind null_pointer_is_valid sspstrong uwtable
define linkonce_odr noundef zeroext i1 @_ZN19QBasicAtomicIntegerIiE5derefEv(ptr noundef align 4 dereferenceable_or_null(4) %0) #7 comdat align 2 {
  %2 = alloca ptr, align 8
  store ptr %0, ptr %2, align 8
  %3 = load ptr, ptr %2, align 8
  %4 = getelementptr inbounds nuw %class.QBasicAtomicInteger, ptr %3, i32 0, i32 0
  %5 = call noundef zeroext i1 @_ZN10QAtomicOpsIiE5derefIiEEbRSt6atomicIT_E(ptr noundef align 4 dereferenceable(4) %4) #13
  ret i1 %5
}

; Function Attrs: mustprogress nounwind null_pointer_is_valid sspstrong uwtable
define linkonce_odr noundef zeroext i1 @_ZN10QArrayData5derefEv(ptr noundef align 8 dereferenceable_or_null(16) %0) #7 comdat align 2 {
  %2 = alloca ptr, align 8
  store ptr %0, ptr %2, align 8
  %3 = load ptr, ptr %2, align 8
  %4 = getelementptr inbounds nuw %struct.QArrayData, ptr %3, i32 0, i32 0
  %5 = call noundef zeroext i1 @_ZN19QBasicAtomicIntegerIiE5derefEv(ptr noundef align 4 dereferenceable_or_null(4) %4) #13
  ret i1 %5
}

; Function Attrs: mustprogress nounwind null_pointer_is_valid sspstrong uwtable
define linkonce_odr void @_ZN15QTypedArrayDataIDsE10deallocateEP10QArrayData(ptr noundef %0) #7 comdat align 2 {
  %2 = alloca ptr, align 8
  store ptr %0, ptr %2, align 8
  %3 = load ptr, ptr %2, align 8
  call void @_ZN10QArrayData10deallocateEPS_xx(ptr noundef %3, i64 noundef 2, i64 noundef 8) #13
  ret void
}

; Function Attrs: mustprogress nounwind null_pointer_is_valid sspstrong uwtable
define linkonce_odr void @_ZN9QtPrivate12QPodArrayOpsIDsE10destroyAllEv(ptr noundef align 8 dereferenceable_or_null(24) %0) #7 comdat align 2 {
  %2 = alloca ptr, align 8
  store ptr %0, ptr %2, align 8
  ret void
}

; Function Attrs: mustprogress nounwind null_pointer_is_valid sspstrong uwtable
define linkonce_odr noundef ptr @_ZN17QArrayDataPointerIDsEptEv(ptr noundef align 8 dereferenceable_or_null(24) %0) #7 comdat align 2 {
  %2 = alloca ptr, align 8
  store ptr %0, ptr %2, align 8
  %3 = load ptr, ptr %2, align 8
  ret ptr %3
}

; Function Attrs: mustprogress nounwind null_pointer_is_valid sspstrong uwtable
define linkonce_odr noundef zeroext i1 @_ZN17QArrayDataPointerIDsE5derefEv(ptr noundef align 8 dereferenceable_or_null(24) %0) #7 comdat align 2 {
  %2 = alloca ptr, align 8
  store ptr %0, ptr %2, align 8
  %3 = load ptr, ptr %2, align 8
  %4 = getelementptr inbounds nuw %struct.QArrayDataPointer, ptr %3, i32 0, i32 0
  %5 = load ptr, ptr %4, align 8
  %6 = icmp ne ptr %5, null
  br i1 %6, label %7, label %11

7:                                                ; preds = %1
  %8 = getelementptr inbounds nuw %struct.QArrayDataPointer, ptr %3, i32 0, i32 0
  %9 = load ptr, ptr %8, align 8
  %10 = call noundef zeroext i1 @_ZN10QArrayData5derefEv(ptr noundef align 8 dereferenceable_or_null(16) %9) #13
  br label %11

11:                                               ; preds = %7, %1
  %12 = phi i1 [ true, %1 ], [ %10, %7 ]
  ret i1 %12
}

; Function Attrs: mustprogress nounwind null_pointer_is_valid sspstrong uwtable
define linkonce_odr void @_ZN17QArrayDataPointerIDsED2Ev(ptr noundef align 8 dereferenceable_or_null(24) %0) unnamed_addr #7 comdat align 2 {
  %2 = alloca ptr, align 8
  store ptr %0, ptr %2, align 8
  %3 = load ptr, ptr %2, align 8
  %4 = call noundef zeroext i1 @_ZN17QArrayDataPointerIDsE5derefEv(ptr noundef align 8 dereferenceable_or_null(24) %3) #13
  br i1 %4, label %9, label %5

5:                                                ; preds = %1
  %6 = call noundef ptr @_ZN17QArrayDataPointerIDsEptEv(ptr noundef align 8 dereferenceable_or_null(24) %3) #13
  call void @_ZN9QtPrivate12QPodArrayOpsIDsE10destroyAllEv(ptr noundef align 8 dereferenceable_or_null(24) %6) #13
  %7 = getelementptr inbounds nuw %struct.QArrayDataPointer, ptr %3, i32 0, i32 0
  %8 = load ptr, ptr %7, align 8
  call void @_ZN15QTypedArrayDataIDsE10deallocateEP10QArrayData(ptr noundef %8) #13
  br label %9

9:                                                ; preds = %5, %1
  ret void
}

; Function Attrs: inlinehint mustprogress nounwind null_pointer_is_valid sspstrong uwtable
define linkonce_odr noundef align 4 dereferenceable(8) ptr @_ZNK17QContextMenuEvent9globalPosEv(ptr noundef align 8 dereferenceable_or_null(57) %0) #3 comdat align 2 {
  %2 = alloca ptr, align 8
  store ptr %0, ptr %2, align 8
  %3 = load ptr, ptr %2, align 8
  %4 = getelementptr inbounds nuw %class.QContextMenuEvent, ptr %3, i32 0, i32 2
  ret ptr %4
}

; Function Attrs: inlinehint mustprogress nounwind null_pointer_is_valid sspstrong uwtable
define linkonce_odr void @_ZN7QStringD2Ev(ptr noundef align 8 dereferenceable_or_null(24) %0) unnamed_addr #3 comdat align 2 {
  %2 = alloca ptr, align 8
  store ptr %0, ptr %2, align 8
  %3 = load ptr, ptr %2, align 8
  %4 = getelementptr inbounds nuw %class.QString, ptr %3, i32 0, i32 0
  call void @_ZN17QArrayDataPointerIDsED2Ev(ptr noundef align 8 dereferenceable_or_null(24) %4) #13
  ret void
}

; Function Attrs: inlinehint mustprogress null_pointer_is_valid sspstrong uwtable
define linkonce_odr void @_ZN23ShowPacketBytesTextEdit2trEPKcS1_i(ptr dead_on_unwind noalias writable sret(%class.QString) align 8 %0, ptr noundef %1, ptr noundef %2, i32 noundef %3) #8 comdat align 2 {
  %5 = alloca ptr, align 8
  %6 = alloca ptr, align 8
  %7 = alloca ptr, align 8
  %8 = alloca i32, align 4
  store ptr %0, ptr %5, align 8
  store ptr %1, ptr %6, align 8
  store ptr %2, ptr %7, align 8
  store i32 %3, ptr %8, align 4
  %9 = load ptr, ptr %6, align 8
  %10 = load ptr, ptr %7, align 8
  %11 = load i32, ptr %8, align 4
  call void @_ZNK11QMetaObject2trEPKcS1_i(ptr dead_on_unwind writable sret(%class.QString) align 8 %0, ptr noundef align 8 dereferenceable_or_null(56) @_ZN23ShowPacketBytesTextEdit16staticMetaObjectE, ptr noundef %9, ptr noundef %10, i32 noundef %11)
  ret void
}

; Function Attrs: mustprogress null_pointer_is_valid sspstrong uwtable
define void @_ZN23ShowPacketBytesTextEdit16contextMenuEventEP17QContextMenuEvent(ptr noundef align 8 dereferenceable_or_null(42) %0, ptr noundef %1) unnamed_addr #0 align 2 personality ptr @__gxx_personality_v0 {
  %3 = alloca ptr, align 8
  %4 = alloca ptr, align 8
  %5 = alloca ptr, align 8
  %6 = alloca ptr, align 8
  %7 = alloca %class.QString, align 8
  %8 = alloca ptr, align 8
  %9 = alloca i32, align 4
  %10 = alloca %class.QTextCursor, align 8
  %11 = alloca i1, align 1
  %12 = alloca i1, align 1
  %13 = alloca %"class.QMetaObject::Connection", align 8
  %14 = alloca %class.QString, align 8
  %15 = alloca %"class.QMetaObject::Connection", align 8
  store ptr %0, ptr %3, align 8
  store ptr %1, ptr %4, align 8
  %16 = load ptr, ptr %3, align 8
  call void @llvm.lifetime.start.p0(i64 8, ptr %5) #13
  %17 = call noundef ptr @_ZN9QTextEdit25createStandardContextMenuEv(ptr noundef align 8 dereferenceable_or_null(40) %16)
  store ptr %17, ptr %5, align 8
  call void @llvm.lifetime.start.p0(i64 8, ptr %6) #13
  %18 = load ptr, ptr %5, align 8
  call void @_ZN7QWidget12setAttributeEN2Qt15WidgetAttributeEb(ptr noundef align 8 dereferenceable_or_null(40) %18, i32 noundef 55, i1 noundef zeroext true)
  %19 = load ptr, ptr %5, align 8
  %20 = call noundef ptr @_ZN5QMenu12addSeparatorEv(ptr noundef align 8 dereferenceable_or_null(40) %19)
  %21 = load ptr, ptr %5, align 8
  call void @llvm.lifetime.start.p0(i64 24, ptr %7) #13
  call void @_ZN23ShowPacketBytesTextEdit2trEPKcS1_i(ptr dead_on_unwind writable sret(%class.QString) align 8 %7, ptr noundef @.str.65, ptr noundef null, i32 noundef -1)
  %22 = invoke noundef ptr @_ZN5QMenu9addActionERK7QString(ptr noundef align 8 dereferenceable_or_null(40) %21, ptr noundef align 8 dereferenceable(24) %7)
          to label %23 unwind label %56

23:                                               ; preds = %2
  store ptr %22, ptr %6, align 8
  call void @_ZN7QStringD2Ev(ptr noundef align 8 dereferenceable_or_null(24) %7) #13
  call void @llvm.lifetime.end.p0(i64 24, ptr %7) #13
  %24 = load ptr, ptr %6, align 8
  %25 = getelementptr inbounds nuw %class.ShowPacketBytesTextEdit, ptr %16, i32 0, i32 2
  %26 = load i8, ptr %25, align 1, !range !7, !noundef !8
  %27 = trunc i8 %26 to i1
  store i1 false, ptr %11, align 1
  store i1 false, ptr %12, align 1
  br i1 %27, label %28, label %35

28:                                               ; preds = %23
  %29 = getelementptr inbounds nuw %class.ShowPacketBytesTextEdit, ptr %16, i32 0, i32 1
  %30 = load i8, ptr %29, align 8, !range !7, !noundef !8
  %31 = trunc i8 %30 to i1
  br i1 %31, label %32, label %35

32:                                               ; preds = %28
  call void @llvm.lifetime.start.p0(i64 8, ptr %10) #13
  store i1 true, ptr %11, align 1
  call void @_ZNK9QTextEdit10textCursorEv(ptr dead_on_unwind writable sret(%class.QTextCursor) align 8 %10, ptr noundef align 8 dereferenceable_or_null(40) %16)
  store i1 true, ptr %12, align 1
  %33 = invoke noundef zeroext i1 @_ZNK11QTextCursor12hasSelectionEv(ptr noundef align 8 dereferenceable_or_null(8) %10)
          to label %34 unwind label %60

34:                                               ; preds = %32
  br label %35

35:                                               ; preds = %34, %28, %23
  %36 = phi i1 [ false, %28 ], [ false, %23 ], [ %33, %34 ]
  invoke void @_ZN7QAction10setEnabledEb(ptr noundef align 8 dereferenceable_or_null(16) %24, i1 noundef zeroext %36)
          to label %37 unwind label %60

37:                                               ; preds = %35
  %38 = load i1, ptr %12, align 1
  br i1 %38, label %39, label %40

39:                                               ; preds = %37
  call void @_ZN11QTextCursorD1Ev(ptr noundef align 8 dereferenceable_or_null(8) %10) #13
  br label %40

40:                                               ; preds = %39, %37
  %41 = load i1, ptr %11, align 1
  br i1 %41, label %42, label %43

42:                                               ; preds = %40
  call void @llvm.lifetime.end.p0(i64 8, ptr %10) #13
  br label %43

43:                                               ; preds = %42, %40
  %44 = load ptr, ptr %6, align 8
  call void @_ZN7QObject7connectEPKS_PKcS1_S3_N2Qt14ConnectionTypeE(ptr dead_on_unwind writable sret(%"class.QMetaObject::Connection") align 8 %13, ptr noundef %44, ptr noundef @.str.66, ptr noundef %16, ptr noundef @.str.67, i32 noundef 0)
  call void @_ZN11QMetaObject10ConnectionD1Ev(ptr noundef align 8 dereferenceable_or_null(8) %13) #13
  %45 = load ptr, ptr %5, align 8
  call void @llvm.lifetime.start.p0(i64 24, ptr %14) #13
  call void @_ZN23ShowPacketBytesTextEdit2trEPKcS1_i(ptr dead_on_unwind writable sret(%class.QString) align 8 %14, ptr noundef @.str.68, ptr noundef null, i32 noundef -1)
  %46 = invoke noundef ptr @_ZN5QMenu9addActionERK7QString(ptr noundef align 8 dereferenceable_or_null(40) %45, ptr noundef align 8 dereferenceable(24) %14)
          to label %47 unwind label %70

47:                                               ; preds = %43
  store ptr %46, ptr %6, align 8
  call void @_ZN7QStringD2Ev(ptr noundef align 8 dereferenceable_or_null(24) %14) #13
  call void @llvm.lifetime.end.p0(i64 24, ptr %14) #13
  %48 = load ptr, ptr %6, align 8
  %49 = getelementptr inbounds nuw %class.ShowPacketBytesTextEdit, ptr %16, i32 0, i32 2
  %50 = load i8, ptr %49, align 1, !range !7, !noundef !8
  %51 = trunc i8 %50 to i1
  call void @_ZN7QAction10setEnabledEb(ptr noundef align 8 dereferenceable_or_null(16) %48, i1 noundef zeroext %51)
  %52 = load ptr, ptr %6, align 8
  call void @_ZN7QObject7connectEPKS_PKcS1_S3_N2Qt14ConnectionTypeE(ptr dead_on_unwind writable sret(%"class.QMetaObject::Connection") align 8 %15, ptr noundef %52, ptr noundef @.str.66, ptr noundef %16, ptr noundef @.str.69, i32 noundef 0)
  call void @_ZN11QMetaObject10ConnectionD1Ev(ptr noundef align 8 dereferenceable_or_null(8) %15) #13
  %53 = load ptr, ptr %5, align 8
  %54 = load ptr, ptr %4, align 8
  %55 = call noundef align 4 dereferenceable(8) ptr @_ZNK17QContextMenuEvent9globalPosEv(ptr noundef align 8 dereferenceable_or_null(57) %54)
  call void @_ZN5QMenu5popupERK6QPointP7QAction(ptr noundef align 8 dereferenceable_or_null(40) %53, ptr noundef align 4 dereferenceable(8) %55, ptr noundef null)
  call void @llvm.lifetime.end.p0(i64 8, ptr %6) #13
  call void @llvm.lifetime.end.p0(i64 8, ptr %5) #13
  ret void

56:                                               ; preds = %2
  %57 = landingpad { ptr, i32 }
          cleanup
  %58 = extractvalue { ptr, i32 } %57, 0
  store ptr %58, ptr %8, align 8
  %59 = extractvalue { ptr, i32 } %57, 1
  store i32 %59, ptr %9, align 4
  call void @_ZN7QStringD2Ev(ptr noundef align 8 dereferenceable_or_null(24) %7) #13
  call void @llvm.lifetime.end.p0(i64 24, ptr %7) #13
  br label %74

60:                                               ; preds = %35, %32
  %61 = landingpad { ptr, i32 }
          cleanup
  %62 = extractvalue { ptr, i32 } %61, 0
  store ptr %62, ptr %8, align 8
  %63 = extractvalue { ptr, i32 } %61, 1
  store i32 %63, ptr %9, align 4
  %64 = load i1, ptr %12, align 1
  br i1 %64, label %65, label %66

65:                                               ; preds = %60
  call void @_ZN11QTextCursorD1Ev(ptr noundef align 8 dereferenceable_or_null(8) %10) #13
  br label %66

66:                                               ; preds = %65, %60
  %67 = load i1, ptr %11, align 1
  br i1 %67, label %68, label %69

68:                                               ; preds = %66
  call void @llvm.lifetime.end.p0(i64 8, ptr %10) #13
  br label %69

69:                                               ; preds = %68, %66
  br label %74

70:                                               ; preds = %43
  %71 = landingpad { ptr, i32 }
          cleanup
  %72 = extractvalue { ptr, i32 } %71, 0
  store ptr %72, ptr %8, align 8
  %73 = extractvalue { ptr, i32 } %71, 1
  store i32 %73, ptr %9, align 4
  call void @_ZN7QStringD2Ev(ptr noundef align 8 dereferenceable_or_null(24) %14) #13
  call void @llvm.lifetime.end.p0(i64 24, ptr %14) #13
  br label %74

74:                                               ; preds = %70, %69, %56
  call void @llvm.lifetime.end.p0(i64 8, ptr %6) #13
  call void @llvm.lifetime.end.p0(i64 8, ptr %5) #13
  br label %75

75:                                               ; preds = %74
  %76 = load ptr, ptr %8, align 8
  %77 = load i32, ptr %9, align 4
  %78 = insertvalue { ptr, i32 } poison, ptr %76, 0
  %79 = insertvalue { ptr, i32 } %78, i32 %77, 1
  resume { ptr, i32 } %79
}