; Function Attrs: mustprogress null_pointer_is_valid sspstrong uwtable
define void @_ZN23ShowPacketBytesTextEdit16contextMenuEventEP17QContextMenuEvent(ptr noundef align 8 dereferenceable_or_null(42) %0, ptr noundef %1) unnamed_addr #0 align 2 personality ptr @__gxx_personality_v0 {
  %3 = alloca %class.QString, align 8
  %4 = alloca %class.QTextCursor, align 8
  %5 = alloca %"class.QMetaObject::Connection", align 8
  %6 = alloca %class.QString, align 8
  %7 = alloca %"class.QMetaObject::Connection", align 8
  %8 = tail call noundef ptr @_ZN9QTextEdit25createStandardContextMenuEv(ptr noundef align 8 dereferenceable_or_null(40) %0)
  tail call void @_ZN7QWidget12setAttributeEN2Qt15WidgetAttributeEb(ptr noundef align 8 dereferenceable_or_null(40) %8, i32 noundef 55, i1 noundef zeroext true)
  %9 = tail call noundef ptr @_ZN5QMenu12addSeparatorEv(ptr noundef align 8 dereferenceable_or_null(40) %8)
  call void @llvm.lifetime.start.p0(i64 24, ptr nonnull %3) #28
  call void @_ZNK11QMetaObject2trEPKcS1_i(ptr dead_on_unwind nonnull writable sret(%class.QString) align 8 %3, ptr noundef nonnull align 8 dereferenceable_or_null(56) @_ZN23ShowPacketBytesTextEdit16staticMetaObjectE, ptr noundef nonnull @.str.65, ptr noundef null, i32 noundef -1)
  %10 = invoke noundef ptr @_ZN5QMenu9addActionERK7QString(ptr noundef align 8 dereferenceable_or_null(40) %8, ptr noundef nonnull align 8 dereferenceable(24) %3)
          to label %11 unwind label %39

11:                                               ; preds = %2
  %12 = load ptr, ptr %3, align 8
  %.not.i.i.i = icmp eq ptr %12, null
  br i1 %.not.i.i.i, label %_ZN7QStringD2Ev.exit, label %_ZN17QArrayDataPointerIDsE5derefEv.exit.i.i

_ZN17QArrayDataPointerIDsE5derefEv.exit.i.i:      ; preds = %11
  %13 = atomicrmw sub ptr %12, i32 1 seq_cst, align 4
  %.not.i.i = icmp eq i32 %13, 1
  br i1 %.not.i.i, label %14, label %_ZN7QStringD2Ev.exit

14:                                               ; preds = %_ZN17QArrayDataPointerIDsE5derefEv.exit.i.i
  %15 = load ptr, ptr %3, align 8
  call void @_ZN10QArrayData10deallocateEPS_xx(ptr noundef %15, i64 noundef 2, i64 noundef 8) #28
  br label %_ZN7QStringD2Ev.exit

_ZN7QStringD2Ev.exit:                             ; preds = %11, %_ZN17QArrayDataPointerIDsE5derefEv.exit.i.i, %14
  call void @llvm.lifetime.end.p0(i64 24, ptr nonnull %3) #28
  %16 = getelementptr inbounds nuw i8, ptr %0, i64 41
  %17 = load i8, ptr %16, align 1, !range !67, !noundef !68
  %18 = trunc nuw i8 %17 to i1
  br i1 %18, label %19, label %26

19:                                               ; preds = %_ZN7QStringD2Ev.exit
  %20 = getelementptr inbounds nuw i8, ptr %0, i64 40
  %21 = load i8, ptr %20, align 8, !range !67, !noundef !68
  %22 = trunc nuw i8 %21 to i1
  br i1 %22, label %23, label %26

23:                                               ; preds = %19
  call void @llvm.lifetime.start.p0(i64 8, ptr nonnull %4) #28
  call void @_ZNK9QTextEdit10textCursorEv(ptr dead_on_unwind nonnull writable sret(%class.QTextCursor) align 8 %4, ptr noundef align 8 dereferenceable_or_null(40) %0)
  %24 = invoke noundef zeroext i1 @_ZNK11QTextCursor12hasSelectionEv(ptr noundef nonnull align 8 dereferenceable_or_null(8) %4)
          to label %26 unwind label %.thread

.thread:                                          ; preds = %23
  %25 = landingpad { ptr, i32 }
          cleanup
  br label %47

26:                                               ; preds = %23, %19, %_ZN7QStringD2Ev.exit
  %.0 = phi i1 [ true, %23 ], [ false, %19 ], [ false, %_ZN7QStringD2Ev.exit ]
  %27 = phi i1 [ %24, %23 ], [ false, %19 ], [ false, %_ZN7QStringD2Ev.exit ]
  invoke void @_ZN7QAction10setEnabledEb(ptr noundef align 8 dereferenceable_or_null(16) %10, i1 noundef zeroext %27)
          to label %28 unwind label %45

28:                                               ; preds = %26
  br i1 %.0, label %29, label %.critedge

29:                                               ; preds = %28
  call void @_ZN11QTextCursorD1Ev(ptr noundef nonnull align 8 dereferenceable_or_null(8) %4) #28
  call void @llvm.lifetime.end.p0(i64 8, ptr nonnull %4) #28
  br label %.critedge

.critedge:                                        ; preds = %28, %29
  call void @_ZN7QObject7connectEPKS_PKcS1_S3_N2Qt14ConnectionTypeE(ptr dead_on_unwind nonnull writable sret(%"class.QMetaObject::Connection") align 8 %5, ptr noundef %10, ptr noundef nonnull @.str.66, ptr noundef %0, ptr noundef nonnull @.str.67, i32 noundef 0)
  call void @_ZN11QMetaObject10ConnectionD1Ev(ptr noundef nonnull align 8 dereferenceable_or_null(8) %5) #28
  call void @llvm.lifetime.start.p0(i64 24, ptr nonnull %6) #28
  call void @_ZNK11QMetaObject2trEPKcS1_i(ptr dead_on_unwind nonnull writable sret(%class.QString) align 8 %6, ptr noundef nonnull align 8 dereferenceable_or_null(56) @_ZN23ShowPacketBytesTextEdit16staticMetaObjectE, ptr noundef nonnull @.str.68, ptr noundef null, i32 noundef -1)
  %30 = invoke noundef ptr @_ZN5QMenu9addActionERK7QString(ptr noundef align 8 dereferenceable_or_null(40) %8, ptr noundef nonnull align 8 dereferenceable(24) %6)
          to label %31 unwind label %49

31:                                               ; preds = %.critedge
  %32 = load ptr, ptr %6, align 8
  %.not.i.i.i23 = icmp eq ptr %32, null
  br i1 %.not.i.i.i23, label %_ZN7QStringD2Ev.exit26, label %_ZN17QArrayDataPointerIDsE5derefEv.exit.i.i24

_ZN17QArrayDataPointerIDsE5derefEv.exit.i.i24:    ; preds = %31
  %33 = atomicrmw sub ptr %32, i32 1 seq_cst, align 4
  %.not.i.i25 = icmp eq i32 %33, 1
  br i1 %.not.i.i25, label %34, label %_ZN7QStringD2Ev.exit26

34:                                               ; preds = %_ZN17QArrayDataPointerIDsE5derefEv.exit.i.i24
  %35 = load ptr, ptr %6, align 8
  call void @_ZN10QArrayData10deallocateEPS_xx(ptr noundef %35, i64 noundef 2, i64 noundef 8) #28
  br label %_ZN7QStringD2Ev.exit26

_ZN7QStringD2Ev.exit26:                           ; preds = %31, %_ZN17QArrayDataPointerIDsE5derefEv.exit.i.i24, %34
  call void @llvm.lifetime.end.p0(i64 24, ptr nonnull %6) #28
  %36 = load i8, ptr %16, align 1, !range !67, !noundef !68
  %37 = trunc nuw i8 %36 to i1
  call void @_ZN7QAction10setEnabledEb(ptr noundef align 8 dereferenceable_or_null(16) %30, i1 noundef zeroext %37)
  call void @_ZN7QObject7connectEPKS_PKcS1_S3_N2Qt14ConnectionTypeE(ptr dead_on_unwind nonnull writable sret(%"class.QMetaObject::Connection") align 8 %7, ptr noundef %30, ptr noundef nonnull @.str.66, ptr noundef %0, ptr noundef nonnull @.str.69, i32 noundef 0)
  call void @_ZN11QMetaObject10ConnectionD1Ev(ptr noundef nonnull align 8 dereferenceable_or_null(8) %7) #28
  %38 = getelementptr inbounds nuw i8, ptr %1, i64 48
  call void @_ZN5QMenu5popupERK6QPointP7QAction(ptr noundef align 8 dereferenceable_or_null(40) %8, ptr noundef nonnull align 4 dereferenceable(8) %38, ptr noundef null)
  ret void

39:                                               ; preds = %2
  %40 = landingpad { ptr, i32 }
          cleanup
  %41 = load ptr, ptr %3, align 8
  %.not.i.i.i27 = icmp eq ptr %41, null
  br i1 %.not.i.i.i27, label %_ZN7QStringD2Ev.exit30, label %_ZN17QArrayDataPointerIDsE5derefEv.exit.i.i28

_ZN17QArrayDataPointerIDsE5derefEv.exit.i.i28:    ; preds = %39
  %42 = atomicrmw sub ptr %41, i32 1 seq_cst, align 4
  %.not.i.i29 = icmp eq i32 %42, 1
  br i1 %.not.i.i29, label %43, label %_ZN7QStringD2Ev.exit30

43:                                               ; preds = %_ZN17QArrayDataPointerIDsE5derefEv.exit.i.i28
  %44 = load ptr, ptr %3, align 8
  call void @_ZN10QArrayData10deallocateEPS_xx(ptr noundef %44, i64 noundef 2, i64 noundef 8) #28
  br label %_ZN7QStringD2Ev.exit30

_ZN7QStringD2Ev.exit30:                           ; preds = %39, %_ZN17QArrayDataPointerIDsE5derefEv.exit.i.i28, %43
  call void @llvm.lifetime.end.p0(i64 24, ptr nonnull %3) #28
  br label %.critedge22

45:                                               ; preds = %26
  %46 = landingpad { ptr, i32 }
          cleanup
  br i1 %.0, label %47, label %.critedge22

47:                                               ; preds = %.thread, %45
  %48 = phi { ptr, i32 } [ %25, %.thread ], [ %46, %45 ]
  call void @_ZN11QTextCursorD1Ev(ptr noundef nonnull align 8 dereferenceable_or_null(8) %4) #28
  call void @llvm.lifetime.end.p0(i64 8, ptr nonnull %4) #28
  br label %.critedge22

49:                                               ; preds = %.critedge
  %50 = landingpad { ptr, i32 }
          cleanup
  %51 = load ptr, ptr %6, align 8
  %.not.i.i.i31 = icmp eq ptr %51, null
  br i1 %.not.i.i.i31, label %_ZN7QStringD2Ev.exit34, label %_ZN17QArrayDataPointerIDsE5derefEv.exit.i.i32

_ZN17QArrayDataPointerIDsE5derefEv.exit.i.i32:    ; preds = %49
  %52 = atomicrmw sub ptr %51, i32 1 seq_cst, align 4
  %.not.i.i33 = icmp eq i32 %52, 1
  br i1 %.not.i.i33, label %53, label %_ZN7QStringD2Ev.exit34

53:                                               ; preds = %_ZN17QArrayDataPointerIDsE5derefEv.exit.i.i32
  %54 = load ptr, ptr %6, align 8
  call void @_ZN10QArrayData10deallocateEPS_xx(ptr noundef %54, i64 noundef 2, i64 noundef 8) #28
  br label %_ZN7QStringD2Ev.exit34

_ZN7QStringD2Ev.exit34:                           ; preds = %49, %_ZN17QArrayDataPointerIDsE5derefEv.exit.i.i32, %53
  call void @llvm.lifetime.end.p0(i64 24, ptr nonnull %6) #28
  br label %.critedge22

.critedge22:                                      ; preds = %45, %47, %_ZN7QStringD2Ev.exit34, %_ZN7QStringD2Ev.exit30
  %.pn = phi { ptr, i32 } [ %50, %_ZN7QStringD2Ev.exit34 ], [ %48, %47 ], [ %40, %_ZN7QStringD2Ev.exit30 ], [ %46, %45 ]
  resume { ptr, i32 } %.pn
}